; Function Attrs: mustprogress uwtable
define void @_ZNK10TimerGroup3SumER5Timer(ptr nocapture noundef nonnull readonly align 8 dereferenceable(56) %0, ptr noundef nonnull align 8 dereferenceable(72) %1) local_unnamed_addr #3 align 2 {
  %3 = load ptr, ptr %0, align 8
  %4 = tail call noundef nonnull align 8 dereferenceable(32) ptr @_ZNSt7__cxx1112basic_stringIcSt11char_traitsIcESaIcEEaSERKS4_(ptr noundef nonnull align 8 dereferenceable(32) %1, ptr noundef nonnull align 8 dereferenceable(32) %3)
  %5 = getelementptr inbounds nuw i8, ptr %1, i64 32
  %6 = getelementptr inbounds nuw i8, ptr %3, i64 32
  tail call void @llvm.memcpy.p0.p0.i64(ptr noundef nonnull align 8 dereferenceable(40) %5, ptr noundef nonnull align 8 dereferenceable(40) %6, i64 40, i1 false)
  %7 = getelementptr inbounds nuw i8, ptr %0, i64 8
  %8 = load ptr, ptr %7, align 8
  %9 = load ptr, ptr %0, align 8
  %10 = ptrtoint ptr %8 to i64
  %11 = ptrtoint ptr %9 to i64
  %12 = sub i64 %10, %11
  %13 = sdiv exact i64 %12, 72
  %14 = icmp ugt i64 %13, 1
  br i1 %14, label %.lr.ph, label %._crit_edge

.lr.ph:                                           ; preds = %2, %.lr.ph
  %15 = phi ptr [ %21, %.lr.ph ], [ %9, %2 ]
  %16 = phi i64 [ %19, %.lr.ph ], [ 1, %2 ]
  %.06 = phi i32 [ %18, %.lr.ph ], [ 1, %2 ]
  %17 = getelementptr inbounds %class.Timer, ptr %15, i64 %16
  tail call void @_ZN5TimerpLERKS_(ptr noundef nonnull align 8 dereferenceable(72) %1, ptr noundef nonnull align 8 dereferenceable(72) %17)
  %18 = add i32 %.06, 1
  %19 = zext i32 %18 to i64
  %20 = load ptr, ptr %7, align 8
  %21 = load ptr, ptr %0, align 8
  %22 = ptrtoint ptr %20 to i64
  %23 = ptrtoint ptr %21 to i64
  %24 = sub i64 %22, %23
  %25 = sdiv exact i64 %24, 72
  %26 = icmp ugt i64 %25, %19
  br i1 %26, label %.lr.ph, label %._crit_edge, !llvm.loop !16

._crit_edge:                                      ; preds = %.lr.ph, %2
  ret void
}